(dp0
S'METTS MARK'
p1
(dp2
S'poi_exposure'
p3
F0.08157073879417168
sS'to_messages'
p4
I807
sS'deferral_payments'
p5
S'NaN'
p6
sS'expenses'
p7
I94299
sS'prop_from_poi'
p8
F0.04708798017348203
sS'poi'
p9
I00
sS'deferred_income'
p10
g6
sS'email_address'
p11
S'mark.metts@enron.com'
p12
sS'long_term_incentive'
p13
g6
sS'restricted_stock_deferred'
p14
g6
sS'shared_receipt_with_poi'
p15
I702
sS'loan_advances'
p16
g6
sS'from_messages'
p17
I29
sS'other'
p18
I1740
sS'director_fees'
p19
g6
sS'bonus'
p20
I600000
sS'total_stock_value'
p21
I585062
sS'prop_to_poi'
p22
F0.034482758620689655
sS'from_poi_to_this_person'
p23
I38
sS'from_this_person_to_poi'
p24
I1
sS'restricted_stock'
p25
I585062
sS'salary'
p26
I365788
sS'total_payments'
p27
I1061827
sS'exercised_stock_options'
p28
g6
ssS'BAXTER JOHN C'
p29
(dp30
g3
S'NaN'
p31
sg4
g6
sg5
I1295738
sg7
I11200
sg8
g31
sg9
I00
sg10
I-1386055
sg11
g6
sg13
I1586055
sg14
g6
sg15
g6
sg16
g6
sg17
g6
sg18
I2660303
sg19
g6
sg20
I1200000
sg21
I10623258
sg22
g31
sg23
g6
sg24
g6
sg25
I3942714
sg26
I267102
sg27
I5634343
sg28
I6680544
ssS'ELLIOTT STEVEN'
p32
(dp33
g3
g31
sg4
g6
sg5
g6
sg7
I78552
sg8
g31
sg9
I00
sg10
I-400729
sg11
S'steven.elliott@enron.com'
p34
sg13
g6
sg14
g6
sg15
g6
sg16
g6
sg17
g6
sg18
I12961
sg19
g6
sg20
I350000
sg21
I6678735
sg22
g31
sg23
g6
sg24
g6
sg25
I1788391
sg26
I170941
sg27
I211725
sg28
I4890344
ssS'CORDES WILLIAM R'
p35
(dp36
g3
F0.013089005235602094
sg4
I764
sg5
g6
sg7
g6
sg8
F0.013089005235602094
sg9
I00
sg10
g6
sg11
S'bill.cordes@enron.com'
p37
sg13
g6
sg14
g6
sg15
I58
sg16
g6
sg17
I12
sg18
g6
sg19
g6
sg20
g6
sg21
I1038185
sg22
F0.0
sg23
I10
sg24
I0
sg25
I386335
sg26
g6
sg27
g6
sg28
I651850
ssS'HANNON KEVIN P'
p38
(dp39
g3
F0.686872009569378
sg4
I1045
sg5
g6
sg7
I34039
sg8
F0.03062200956937799
sg9
I01
sg10
I-3117011
sg11
S'kevin.hannon@enron.com'
p40
sg13
I1617011
sg14
g6
sg15
I1035
sg16
g6
sg17
I32
sg18
I11350
sg19
g6
sg20
I1500000
sg21
I6391065
sg22
F0.65625
sg23
I32
sg24
I21
sg25
I853064
sg26
I243293
sg27
I288682
sg28
I5538001
ssS'MORDAUNT KRISTINA M'
p41
(dp42
g3
g31
sg4
g6
sg5
g6
sg7
I35018
sg8
g31
sg9
I00
sg10
g6
sg11
S'kristina.mordaunt@enron.com'
p43
sg13
g6
sg14
g6
sg15
g6
sg16
g6
sg17
g6
sg18
I1411
sg19
g6
sg20
I325000
sg21
I208510
sg22
g31
sg23
g6
sg24
g6
sg25
I208510
sg26
I267093
sg27
I628522
sg28
g6
ssS'MEYER ROCKFORD G'
p44
(dp45
g3
F0.0
sg4
I232
sg5
I1848227
sg7
g6
sg8
F0.0
sg9
I00
sg10
g6
sg11
S'rockford.meyer@enron.com'
p46
sg13
g6
sg14
g6
sg15
I22
sg16
g6
sg17
I28
sg18
g6
sg19
g6
sg20
g6
sg21
I955873
sg22
F0.0
sg23
I0
sg24
I0
sg25
I462384
sg26
g6
sg27
I1848227
sg28
I493489
ssS'MCMAHON JEFFREY'
p47
(dp48
g3
F0.5662951167728237
sg4
I2355
sg5
g6
sg7
I137108
sg8
F0.024628450106157114
sg9
I00
sg10
g6
sg11
S'jeffrey.mcmahon@enron.com'
p49
sg13
I694862
sg14
g6
sg15
I2228
sg16
g6
sg17
I48
sg18
I297353
sg19
g6
sg20
I2600000
sg21
I1662855
sg22
F0.5416666666666666
sg23
I58
sg24
I26
sg25
I558801
sg26
I370448
sg27
I4099771
sg28
I1104054
ssS'HORTON STANLEY C'
p50
(dp51
g3
F0.032702900993436576
sg4
I2350
sg5
I3131860
sg7
g6
sg8
F0.01872340425531915
sg9
I00
sg10
g6
sg11
S'stanley.horton@enron.com'
p52
sg13
g6
sg14
g6
sg15
I1074
sg16
g6
sg17
I1073
sg18
g6
sg19
g6
sg20
g6
sg21
I7256648
sg22
F0.013979496738117428
sg23
I44
sg24
I15
sg25
I2046079
sg26
g6
sg27
I3131860
sg28
I5210569
ssS'PIPER GREGORY F'
p53
(dp54
g3
F0.26548923721783174
sg4
I1238
sg5
I1130036
sg7
I43057
sg8
F0.049273021001615507
sg9
I00
sg10
I-33333
sg11
S'greg.piper@enron.com'
p55
sg13
g6
sg14
I-409554
sg15
I742
sg16
g6
sg17
I222
sg18
I778
sg19
g6
sg20
I400000
sg21
I880290
sg22
F0.21621621621621623
sg23
I61
sg24
I48
sg25
I409554
sg26
I197091
sg27
I1737629
sg28
I880290
ssS'HUMPHREY GENE E'
p56
(dp57
g3
F1.078125
sg4
I128
sg5
I2964506
sg7
I4994
sg8
F0.078125
sg9
I00
sg10
g6
sg11
S'gene.humphrey@enron.com'
p58
sg13
g6
sg14
g6
sg15
I119
sg16
g6
sg17
I17
sg18
g6
sg19
g6
sg20
g6
sg21
I2282768
sg22
F1.0
sg23
I10
sg24
I17
sg25
g6
sg26
I130724
sg27
I3100224
sg28
I2282768
ssS'UMANOFF ADAM S'
p59
(dp60
g3
F0.10810810810810811
sg4
I111
sg5
g6
sg7
I53122
sg8
F0.10810810810810811
sg9
I00
sg10
g6
sg11
S'adam.umanoff@enron.com'
p61
sg13
g6
sg14
g6
sg15
I41
sg16
g6
sg17
I18
sg18
g6
sg19
g6
sg20
I788750
sg21
g6
sg22
F0.0
sg23
I12
sg24
I0
sg25
g6
sg26
I288589
sg27
I1130461
sg28
g6
ssS'BLACHMAN JEREMY M'
p62
(dp63
g3
F0.15295815295815296
sg4
I2475
sg5
g6
sg7
I84208
sg8
F0.010101010101010102
sg9
I00
sg10
g6
sg11
S'jeremy.blachman@enron.com'
p64
sg13
I831809
sg14
g6
sg15
I2326
sg16
g6
sg17
I14
sg18
I272
sg19
g6
sg20
I850000
sg21
I954354
sg22
F0.14285714285714285
sg23
I25
sg24
I2
sg25
I189041
sg26
I248546
sg27
I2014835
sg28
I765313
ssS'SUNDE MARTIN'
p65
(dp66
g3
F0.3560833515598592
sg4
I2647
sg5
g6
sg7
g6
sg8
F0.013978088401964487
sg9
I00
sg10
g6
sg11
S'marty.sunde@enron.com'
p67
sg13
I476451
sg14
g6
sg15
I2565
sg16
g6
sg17
I38
sg18
I111122
sg19
g6
sg20
I700000
sg21
I698920
sg22
F0.34210526315789475
sg23
I37
sg24
I13
sg25
I698920
sg26
I257486
sg27
I1545059
sg28
g6
ssS'GIBBS DANA R'
p68
(dp69
g3
F0.0
sg4
I169
sg5
I504610
sg7
g6
sg8
F0.0
sg9
I00
sg10
g6
sg11
S'dana.gibbs@enron.com'
p70
sg13
I461912
sg14
g6
sg15
I23
sg16
g6
sg17
I12
sg18
g6
sg19
g6
sg20
g6
sg21
I2218275
sg22
F0.0
sg23
I0
sg24
I0
sg25
g6
sg26
g6
sg27
I966522
sg28
I2218275
ssS'LOWRY CHARLES P'
p71
(dp72
g3
g31
sg4
g6
sg5
g6
sg7
g6
sg8
g31
sg9
I00
sg10
g6
sg11
g6
sg13
g6
sg14
I-153686
sg15
g6
sg16
g6
sg17
g6
sg18
g6
sg19
g6
sg20
g6
sg21
I372205
sg22
g31
sg23
g6
sg24
g6
sg25
I153686
sg26
g6
sg27
g6
sg28
I372205
ssS'COLWELL WESLEY'
p73
(dp74
g3
F0.4115187713310581
sg4
I1758
sg5
I27610
sg7
I16514
sg8
F0.13651877133105803
sg9
I01
sg10
I-144062
sg11
S'wes.colwell@enron.com'
p75
sg13
g6
sg14
g6
sg15
I1132
sg16
g6
sg17
I40
sg18
I101740
sg19
g6
sg20
I1200000
sg21
I698242
sg22
F0.275
sg23
I240
sg24
I11
sg25
I698242
sg26
I288542
sg27
I1490344
sg28
g6
ssS'MULLER MARK S'
p76
(dp77
g3
F0.08823529411764706
sg4
I136
sg5
I842924
sg7
g6
sg8
F0.08823529411764706
sg9
I00
sg10
I-719000
sg11
S's..muller@enron.com'
p78
sg13
I1725545
sg14
g6
sg15
I114
sg16
g6
sg17
I16
sg18
I947
sg19
g6
sg20
I1100000
sg21
I1416848
sg22
F0.0
sg23
I12
sg24
I0
sg25
I360528
sg26
I251654
sg27
I3202070
sg28
I1056320
ssS'JACKSON CHARLENE R'
p79
(dp80
g3
F0.43618493909191586
sg4
I258
sg5
g6
sg7
I10181
sg8
F0.09689922480620156
sg9
I00
sg10
g6
sg11
S'charlene.jackson@enron.com'
p81
sg13
g6
sg14
g6
sg15
I117
sg16
g6
sg17
I56
sg18
I2435
sg19
g6
sg20
I250000
sg21
I725735
sg22
F0.3392857142857143
sg23
I25
sg24
I19
sg25
I540672
sg26
I288558
sg27
I551174
sg28
I185063
ssS'WESTFAHL RICHARD K'
p82
(dp83
g3
g31
sg4
g6
sg5
g6
sg7
I51870
sg8
g31
sg9
I00
sg10
I-10800
sg11
S'dick.westfahl@enron.com'
p84
sg13
I256191
sg14
g6
sg15
g6
sg16
g6
sg17
g6
sg18
I401130
sg19
g6
sg20
g6
sg21
I384930
sg22
g31
sg23
g6
sg24
g6
sg25
I384930
sg26
I63744
sg27
I762135
sg28
g6
ssS'WALTERS GARETH W'
p85
(dp86
g3
g31
sg4
g6
sg5
I53625
sg7
I33785
sg8
g31
sg9
I00
sg10
g6
sg11
g6
sg13
g6
sg14
g6
sg15
g6
sg16
g6
sg17
g6
sg18
g6
sg19
g6
sg20
g6
sg21
I1030329
sg22
g31
sg23
g6
sg24
g6
sg25
g6
sg26
g6
sg27
I87410
sg28
I1030329
ssS'WALLS JR ROBERT H'
p87
(dp88
g3
F0.02533532041728763
sg4
I671
sg5
g6
sg7
I50936
sg8
F0.02533532041728763
sg9
I00
sg10
g6
sg11
S'rob.walls@enron.com'
p89
sg13
I540751
sg14
g6
sg15
I215
sg16
g6
sg17
I146
sg18
I2
sg19
g6
sg20
I850000
sg21
I5898997
sg22
F0.0
sg23
I17
sg24
I0
sg25
I1552453
sg26
I357091
sg27
I1798780
sg28
I4346544
ssS'KITCHEN LOUISE'
p90
(dp91
g3
F0.14249127589359378
sg4
I8305
sg5
g6
sg7
I5774
sg8
F0.030222757375075255
sg9
I00
sg10
g6
sg11
S'louise.kitchen@enron.com'
p92
sg13
g6
sg14
g6
sg15
I3669
sg16
g6
sg17
I1728
sg18
I93925
sg19
g6
sg20
I3100000
sg21
I547143
sg22
F0.11226851851851852
sg23
I251
sg24
I194
sg25
I466101
sg26
I271442
sg27
I3471141
sg28
I81042
ssS'CHAN RONNIE'
p93
(dp94
g3
g31
sg4
g6
sg5
g6
sg7
g6
sg8
g31
sg9
I00
sg10
I-98784
sg11
g6
sg13
g6
sg14
I-32460
sg15
g6
sg16
g6
sg17
g6
sg18
g6
sg19
I98784
sg20
g6
sg21
g6
sg22
g31
sg23
g6
sg24
g6
sg25
I32460
sg26
g6
sg27
g6
sg28
g6
ssS'BELFER ROBERT'
p95
(dp96
g3
g31
sg4
g6
sg5
I-102500
sg7
g6
sg8
g31
sg9
I00
sg10
g6
sg11
g6
sg13
g6
sg14
I44093
sg15
g6
sg16
g6
sg17
g6
sg18
g6
sg19
I3285
sg20
g6
sg21
I-44093
sg22
g31
sg23
g6
sg24
g6
sg25
g6
sg26
g6
sg27
I102500
sg28
I3285
ssS'SHANKMAN JEFFREY A'
p97
(dp98
g3
F0.06014208092848347
sg4
I3221
sg5
g6
sg7
I178979
sg8
F0.029183483390251473
sg9
I00
sg10
g6
sg11
S'jeffrey.shankman@enron.com'
p99
sg13
I554422
sg14
g6
sg15
I1730
sg16
g6
sg17
I2681
sg18
I1191
sg19
g6
sg20
I2000000
sg21
I2072035
sg22
F0.030958597538232
sg23
I94
sg24
I83
sg25
I630137
sg26
I304110
sg27
I3038702
sg28
I1441898
ssS'WODRASKA JOHN'
p100
(dp101
g3
g31
sg4
g6
sg5
g6
sg7
g6
sg8
g31
sg9
I00
sg10
g6
sg11
S'john.wodraska@enron.com'
p102
sg13
g6
sg14
g6
sg15
g6
sg16
g6
sg17
g6
sg18
I189583
sg19
g6
sg20
g6
sg21
g6
sg22
g31
sg23
g6
sg24
g6
sg25
g6
sg26
g6
sg27
I189583
sg28
g6
ssS'BERGSIEKER RICHARD P'
p103
(dp104
g3
F0.010443864229765013
sg4
I383
sg5
g6
sg7
I59175
sg8
F0.010443864229765013
sg9
I00
sg10
I-485813
sg11
S'rick.bergsieker@enron.com'
p105
sg13
I180250
sg14
g6
sg15
I233
sg16
g6
sg17
I59
sg18
I427316
sg19
g6
sg20
I250000
sg21
I659249
sg22
F0.0
sg23
I4
sg24
I0
sg25
I659249
sg26
I187922
sg27
I618850
sg28
g6
ssS'URQUHART JOHN A'
p106
(dp107
g3
g31
sg4
g6
sg5
g6
sg7
I228656
sg8
g31
sg9
I00
sg10
I-36666
sg11
g6
sg13
g6
sg14
g6
sg15
g6
sg16
g6
sg17
g6
sg18
g6
sg19
I36666
sg20
g6
sg21
g6
sg22
g31
sg23
g6
sg24
g6
sg25
g6
sg26
g6
sg27
I228656
sg28
g6
ssS'BIBI PHILIPPE A'
p108
(dp109
g3
F0.21431238332296204
sg4
I1607
sg5
g6
sg7
I38559
sg8
F0.01431238332296204
sg9
I00
sg10
g6
sg11
S'philippe.bibi@enron.com'
p110
sg13
I369721
sg14
g6
sg15
I1336
sg16
g6
sg17
I40
sg18
I425688
sg19
g6
sg20
I1000000
sg21
I1843816
sg22
F0.2
sg23
I23
sg24
I8
sg25
I378082
sg26
I213625
sg27
I2047593
sg28
I1465734
ssS'RIEKER PAULA H'
p111
(dp112
g3
F0.6117212753452835
sg4
I1328
sg5
I214678
sg7
I33271
sg8
F0.02635542168674699
sg9
I01
sg10
I-100000
sg11
S'paula.rieker@enron.com'
p113
sg13
g6
sg14
g6
sg15
I1258
sg16
g6
sg17
I82
sg18
I1950
sg19
g6
sg20
I700000
sg21
I1918887
sg22
F0.5853658536585366
sg23
I35
sg24
I48
sg25
I283649
sg26
I249201
sg27
I1099100
sg28
I1635238
ssS'WHALEY DAVID A'
p114
(dp115
g3
g31
sg4
g6
sg5
g6
sg7
g6
sg8
g31
sg9
I00
sg10
g6
sg11
g6
sg13
g6
sg14
g6
sg15
g6
sg16
g6
sg17
g6
sg18
g6
sg19
g6
sg20
g6
sg21
I98718
sg22
g31
sg23
g6
sg24
g6
sg25
g6
sg26
g6
sg27
g6
sg28
I98718
ssS'BECK SALLY W'
p116
(dp117
g3
F0.10856423288770563
sg4
I7315
sg5
g6
sg7
I37172
sg8
F0.01968557758031442
sg9
I00
sg10
g6
sg11
S'sally.beck@enron.com'
p118
sg13
g6
sg14
g6
sg15
I2639
sg16
g6
sg17
I4343
sg18
I566
sg19
g6
sg20
I700000
sg21
I126027
sg22
F0.08887865530739121
sg23
I144
sg24
I386
sg25
I126027
sg26
I231330
sg27
I969068
sg28
g6
ssS'HAUG DAVID L'
p119
(dp120
g3
F0.37540185542390003
sg4
I573
sg5
g6
sg7
I475
sg8
F0.006980802792321117
sg9
I00
sg10
g6
sg11
S'david.haug@enron.com'
p121
sg13
g6
sg14
g6
sg15
I471
sg16
g6
sg17
I19
sg18
g6
sg19
g6
sg20
g6
sg21
I2217299
sg22
F0.3684210526315789
sg23
I4
sg24
I7
sg25
I2217299
sg26
g6
sg27
I475
sg28
g6
ssS'ECHOLS JOHN B'
p122
(dp123
g3
g31
sg4
g6
sg5
g6
sg7
I21530
sg8
g31
sg9
I00
sg10
g6
sg11
S'john.echols@enron.com'
p124
sg13
I2234774
sg14
g6
sg15
g6
sg16
g6
sg17
g6
sg18
I53775
sg19
g6
sg20
I200000
sg21
I1008941
sg22
g31
sg23
g6
sg24
g6
sg25
I407503
sg26
I182245
sg27
I2692324
sg28
I601438
ssS'MENDELSOHN JOHN'
p125
(dp126
g3
g31
sg4
g6
sg5
g6
sg7
I148
sg8
g31
sg9
I00
sg10
I-103750
sg11
g6
sg13
g6
sg14
g6
sg15
g6
sg16
g6
sg17
g6
sg18
g6
sg19
I103750
sg20
g6
sg21
g6
sg22
g31
sg23
g6
sg24
g6
sg25
g6
sg26
g6
sg27
I148
sg28
g6
ssS'HICKERSON GARY J'
p127
(dp128
g3
F0.06734006734006734
sg4
I1320
sg5
g6
sg7
I98849
sg8
F0.030303030303030304
sg9
I00
sg10
g6
sg11
S'gary.hickerson@enron.com'
p129
sg13
I69223
sg14
g6
sg15
I900
sg16
g6
sg17
I27
sg18
I1936
sg19
g6
sg20
I1700000
sg21
I441096
sg22
F0.037037037037037035
sg23
I40
sg24
I1
sg25
I441096
sg26
I211788
sg27
I2081796
sg28
g6
ssS'CLINE KENNETH W'
p130
(dp131
g3
g31
sg4
g6
sg5
g6
sg7
g6
sg8
g31
sg9
I00
sg10
g6
sg11
g6
sg13
g6
sg14
I-472568
sg15
g6
sg16
g6
sg17
g6
sg18
g6
sg19
g6
sg20
g6
sg21
I189518
sg22
g31
sg23
g6
sg24
g6
sg25
I662086
sg26
g6
sg27
g6
sg28
g6
ssS'LEWIS RICHARD'
p132
(dp133
g3
F0.01050420168067227
sg4
I952
sg5
g6
sg7
g6
sg8
F0.01050420168067227
sg9
I00
sg10
g6
sg11
S'richard.lewis@enron.com'
p134
sg13
g6
sg14
g6
sg15
I739
sg16
g6
sg17
I26
sg18
g6
sg19
g6
sg20
g6
sg21
I850477
sg22
F0.0
sg23
I10
sg24
I0
sg25
g6
sg26
g6
sg27
g6
sg28
I850477
ssS'HAYES ROBERT E'
p135
(dp136
g3
F0.031746031746031744
sg4
I504
sg5
I7961
sg7
g6
sg8
F0.031746031746031744
sg9
I00
sg10
g6
sg11
S'robert.hayes@enron.com'
p137
sg13
g6
sg14
g6
sg15
I50
sg16
g6
sg17
I12
sg18
g6
sg19
g6
sg20
g6
sg21
I151418
sg22
F0.0
sg23
I16
sg24
I0
sg25
I151418
sg26
g6
sg27
I7961
sg28
g6
ssS'MCCARTY DANNY J'
p138
(dp139
g3
F0.026748243236664016
sg4
I1433
sg5
g6
sg7
g6
sg8
F0.017445917655268667
sg9
I00
sg10
g6
sg11
S'danny.mccarty@enron.com'
p140
sg13
g6
sg14
g6
sg15
I508
sg16
g6
sg17
I215
sg18
g6
sg19
g6
sg20
g6
sg21
I758931
sg22
F0.009302325581395349
sg23
I25
sg24
I2
sg25
I94556
sg26
g6
sg27
g6
sg28
I664375
ssS'KOPPER MICHAEL J'
p141
(dp142
g3
g31
sg4
g6
sg5
g6
sg7
I118134
sg8
g31
sg9
I01
sg10
g6
sg11
S'michael.kopper@enron.com'
p143
sg13
I602671
sg14
g6
sg15
g6
sg16
g6
sg17
g6
sg18
I907502
sg19
g6
sg20
I800000
sg21
I985032
sg22
g31
sg23
g6
sg24
g6
sg25
I985032
sg26
I224305
sg27
I2652612
sg28
g6
ssS'LEFF DANIEL P'
p144
(dp145
g3
F0.24596424915347664
sg4
I2822
sg5
g6
sg7
g6
sg8
F0.02374202693125443
sg9
I00
sg10
g6
sg11
S'dan.leff@enron.com'
p146
sg13
I1387399
sg14
g6
sg15
I2672
sg16
g6
sg17
I63
sg18
I3083
sg19
g6
sg20
I1000000
sg21
I360528
sg22
F0.2222222222222222
sg23
I67
sg24
I14
sg25
I360528
sg26
I273746
sg27
I2664228
sg28
g6
ssS'LAVORATO JOHN J'
p147
(dp148
g3
F0.23173148893003628
sg4
I7259
sg5
g6
sg7
I49537
sg8
F0.07273729163796666
sg9
I00
sg10
g6
sg11
S'john.lavorato@enron.com'
p149
sg13
I2035380
sg14
g6
sg15
I3962
sg16
g6
sg17
I2585
sg18
I1552
sg19
g6
sg20
I8000000
sg21
I5167144
sg22
F0.15899419729206962
sg23
I528
sg24
I411
sg25
I1008149
sg26
I339288
sg27
I10425757
sg28
I4158995
ssS'BERBERIAN DAVID'
p150
(dp151
g3
g31
sg4
g6
sg5
g6
sg7
I11892
sg8
g31
sg9
I00
sg10
g6
sg11
S'david.berberian@enron.com'
p152
sg13
g6
sg14
g6
sg15
g6
sg16
g6
sg17
g6
sg18
g6
sg19
g6
sg20
g6
sg21
I2493616
sg22
g31
sg23
g6
sg24
g6
sg25
I869220
sg26
I216582
sg27
I228474
sg28
I1624396
ssS'DETMERING TIMOTHY J'
p153
(dp154
g3
g31
sg4
g6
sg5
I875307
sg7
I52255
sg8
g31
sg9
I00
sg10
I-775241
sg11
S'timothy.detmering@enron.com'
p155
sg13
I415657
sg14
I-315068
sg15
g6
sg16
g6
sg17
g6
sg18
I1105
sg19
g6
sg20
I425000
sg21
I2027865
sg22
g31
sg23
g6
sg24
g6
sg25
I315068
sg26
I210500
sg27
I1204583
sg28
I2027865
ssS'WAKEHAM JOHN'
p156
(dp157
g3
g31
sg4
g6
sg5
g6
sg7
I103773
sg8
g31
sg9
I00
sg10
g6
sg11
g6
sg13
g6
sg14
g6
sg15
g6
sg16
g6
sg17
g6
sg18
g6
sg19
I109298
sg20
g6
sg21
g6
sg22
g31
sg23
g6
sg24
g6
sg25
g6
sg26
g6
sg27
I213071
sg28
g6
ssS'POWERS WILLIAM'
p158
(dp159
g3
F0.0
sg4
I653
sg5
g6
sg7
g6
sg8
F0.0
sg9
I00
sg10
I-17500
sg11
S'ken.powers@enron.com'
p160
sg13
g6
sg14
g6
sg15
I12
sg16
g6
sg17
I26
sg18
g6
sg19
I17500
sg20
g6
sg21
g6
sg22
F0.0
sg23
I0
sg24
I0
sg25
g6
sg26
g6
sg27
g6
sg28
g6
ssS'GOLD JOSEPH'
p161
(dp162
g3
g31
sg4
g6
sg5
g6
sg7
g6
sg8
g31
sg9
I00
sg10
g6
sg11
S'joe.gold@enron.com'
p163
sg13
I304805
sg14
g6
sg15
g6
sg16
g6
sg17
g6
sg18
I819288
sg19
g6
sg20
I750000
sg21
I877611
sg22
g31
sg23
g6
sg24
g6
sg25
I441096
sg26
I272880
sg27
I2146973
sg28
I436515
ssS'BANNANTINE JAMES M'
p164
(dp165
g3
F0.06890459363957598
sg4
I566
sg5
g6
sg7
I56301
sg8
F0.06890459363957598
sg9
I00
sg10
I-5104
sg11
S'james.bannantine@enron.com'
p166
sg13
g6
sg14
I-560222
sg15
I465
sg16
g6
sg17
I29
sg18
I864523
sg19
g6
sg20
g6
sg21
I5243487
sg22
F0.0
sg23
I39
sg24
I0
sg25
I1757552
sg26
I477
sg27
I916197
sg28
I4046157
ssS'DUNCAN JOHN H'
p167
(dp168
g3
g31
sg4
g6
sg5
g6
sg7
g6
sg8
g31
sg9
I00
sg10
I-25000
sg11
g6
sg13
g6
sg14
g6
sg15
g6
sg16
g6
sg17
g6
sg18
g6
sg19
I102492
sg20
g6
sg21
I371750
sg22
g31
sg23
g6
sg24
g6
sg25
g6
sg26
g6
sg27
I77492
sg28
I371750
ssS'SHAPIRO RICHARD S'
p169
(dp170
g3
F0.058382753265437126
sg4
I15149
sg5
g6
sg7
I137767
sg8
F0.0048848108786058485
sg9
I00
sg10
g6
sg11
S'richard.shapiro@enron.com'
p171
sg13
g6
sg14
g6
sg15
I4527
sg16
g6
sg17
I1215
sg18
I705
sg19
g6
sg20
I650000
sg21
I987001
sg22
F0.053497942386831275
sg23
I74
sg24
I65
sg25
I379164
sg26
I269076
sg27
I1057548
sg28
I607837
ssS'SHERRIFF JOHN R'
p172
(dp173
g3
F0.258785691873235
sg4
I3187
sg5
g6
sg7
g6
sg8
F0.008785691873235017
sg9
I00
sg10
g6
sg11
S'john.sherriff@enron.com'
p174
sg13
I554422
sg14
g6
sg15
I2103
sg16
g6
sg17
I92
sg18
I1852186
sg19
g6
sg20
I1500000
sg21
I3128982
sg22
F0.25
sg23
I28
sg24
I23
sg25
I1293424
sg26
I428780
sg27
I4335388
sg28
I1835558
ssS'SHELBY REX'
p175
(dp176
g3
F0.41675213675213674
sg4
I225
sg5
g6
sg7
I22884
sg8
F0.057777777777777775
sg9
I01
sg10
I-4167
sg11
S'rex.shelby@enron.com'
p177
sg13
g6
sg14
g6
sg15
I91
sg16
g6
sg17
I39
sg18
I1573324
sg19
g6
sg20
I200000
sg21
I2493616
sg22
F0.358974358974359
sg23
I13
sg24
I14
sg25
I869220
sg26
I211844
sg27
I2003885
sg28
I1624396
ssS'LEMAISTRE CHARLES'
p178
(dp179
g3
g31
sg4
g6
sg5
g6
sg7
g6
sg8
g31
sg9
I00
sg10
I-25000
sg11
g6
sg13
g6
sg14
g6
sg15
g6
sg16
g6
sg17
g6
sg18
g6
sg19
I112492
sg20
g6
sg21
I412878
sg22
g31
sg23
g6
sg24
g6
sg25
g6
sg26
g6
sg27
I87492
sg28
I412878
ssS'DEFFNER JOSEPH M'
p180
(dp181
g3
F0.2151184798243622
sg4
I714
sg5
g6
sg7
I41626
sg8
F0.16106442577030813
sg9
I00
sg10
g6
sg11
S'joseph.deffner@enron.com'
p182
sg13
I335349
sg14
g6
sg15
I552
sg16
g6
sg17
I74
sg18
I25553
sg19
g6
sg20
I600000
sg21
I159211
sg22
F0.05405405405405406
sg23
I115
sg24
I4
sg25
I141833
sg26
I206121
sg27
I1208649
sg28
I17378
ssS'KISHKILL JOSEPH G'
p183
(dp184
g3
g31
sg4
g6
sg5
g6
sg7
I116335
sg8
g31
sg9
I00
sg10
I-51042
sg11
S'joe.kishkill@enron.com'
p185
sg13
g6
sg14
g6
sg15
g6
sg16
g6
sg17
g6
sg18
I465357
sg19
g6
sg20
g6
sg21
I1034346
sg22
g31
sg23
g6
sg24
g6
sg25
I1034346
sg26
I174246
sg27
I704896
sg28
g6
ssS'WHALLEY LAWRENCE G'
p186
(dp187
g3
F0.07406761083905761
sg4
I6019
sg5
g6
sg7
I57838
sg8
F0.03090214321315833
sg9
I00
sg10
g6
sg11
S'greg.whalley@enron.com'
p188
sg13
I808346
sg14
g6
sg15
I3920
sg16
g6
sg17
I556
sg18
I301026
sg19
g6
sg20
I3000000
sg21
I6079137
sg22
F0.04316546762589928
sg23
I186
sg24
I24
sg25
I2796177
sg26
I510364
sg27
I4677574
sg28
I3282960
ssS'MCCONNELL MICHAEL S'
p189
(dp190
g3
F0.09838720314527047
sg4
I3329
sg5
g6
sg7
I81364
sg8
F0.02763592670471613
sg9
I00
sg10
g6
sg11
S'mike.mcconnell@enron.com'
p191
sg13
I554422
sg14
g6
sg15
I2189
sg16
g6
sg17
I2742
sg18
I540
sg19
g6
sg20
I1100000
sg21
I3101279
sg22
F0.07075127644055434
sg23
I92
sg24
I194
sg25
I1478269
sg26
I365038
sg27
I2101364
sg28
I1623010
ssS'PIRO JIM'
p192
(dp193
g3
F0.0625
sg4
I58
sg5
g6
sg7
g6
sg8
F0.0
sg9
I00
sg10
g6
sg11
S'jim.piro@enron.com'
p194
sg13
g6
sg14
g6
sg15
I3
sg16
g6
sg17
I16
sg18
g6
sg19
g6
sg20
g6
sg21
I47304
sg22
F0.0625
sg23
I0
sg24
I1
sg25
I47304
sg26
g6
sg27
g6
sg28
g6
ssS'DELAINEY DAVID W'
p195
(dp196
g3
F0.2197744789340797
sg4
I3093
sg5
g6
sg7
I86174
sg8
F0.02133850630455868
sg9
I01
sg10
g6
sg11
S'david.delainey@enron.com'
p197
sg13
I1294981
sg14
g6
sg15
I2097
sg16
g6
sg17
I3069
sg18
I1661
sg19
g6
sg20
I3000000
sg21
I3614261
sg22
F0.198435972629521
sg23
I66
sg24
I609
sg25
I1323148
sg26
I365163
sg27
I4747979
sg28
I2291113
ssS'SULLIVAN-SHAKLOVITZ COLLEEN'
p198
(dp199
g3
g31
sg4
g6
sg5
I181993
sg7
g6
sg8
g31
sg9
I00
sg10
g6
sg11
g6
sg13
I554422
sg14
g6
sg15
g6
sg16
g6
sg17
g6
sg18
I162
sg19
g6
sg20
I100000
sg21
I1362375
sg22
g31
sg23
g6
sg24
g6
sg25
g6
sg26
I162779
sg27
I999356
sg28
I1362375
ssS'WROBEL BRUCE'
p200
(dp201
g3
g31
sg4
g6
sg5
g6
sg7
g6
sg8
g31
sg9
I00
sg10
g6
sg11
g6
sg13
g6
sg14
g6
sg15
g6
sg16
g6
sg17
g6
sg18
g6
sg19
g6
sg20
g6
sg21
I139130
sg22
g31
sg23
g6
sg24
g6
sg25
g6
sg26
g6
sg27
g6
sg28
I139130
ssS'LINDHOLM TOD A'
p202
(dp203
g3
g31
sg4
g6
sg5
I204075
sg7
I57727
sg8
g31
sg9
I00
sg10
g6
sg11
S'tod.lindholm@enron.com'
p204
sg13
I175000
sg14
g6
sg15
g6
sg16
g6
sg17
g6
sg18
I2630
sg19
g6
sg20
I200000
sg21
I3064208
sg22
g31
sg23
g6
sg24
g6
sg25
I514847
sg26
I236457
sg27
I875889
sg28
I2549361
ssS'MEYER JEROME J'
p205
(dp206
g3
g31
sg4
g6
sg5
g6
sg7
I2151
sg8
g31
sg9
I00
sg10
I-38346
sg11
g6
sg13
g6
sg14
g6
sg15
g6
sg16
g6
sg17
g6
sg18
g6
sg19
I38346
sg20
g6
sg21
g6
sg22
g31
sg23
g6
sg24
g6
sg25
g6
sg26
g6
sg27
I2151
sg28
g6
ssS'LAY KENNETH L'
p207
(dp208
g3
F0.47322984112125227
sg4
I4273
sg5
I202911
sg7
I99832
sg8
F0.028785396676807865
sg9
I01
sg10
I-300000
sg11
S'kenneth.lay@enron.com'
p209
sg13
I3600000
sg14
g6
sg15
I2411
sg16
I81525000
sg17
I36
sg18
I10359729
sg19
g6
sg20
I7000000
sg21
I49110078
sg22
F0.4444444444444444
sg23
I123
sg24
I16
sg25
I14761694
sg26
I1072321
sg27
I103559793
sg28
I34348384
ssS'BUTTS ROBERT H'
p210
(dp211
g3
g31
sg4
g6
sg5
g6
sg7
I9410
sg8
g31
sg9
I00
sg10
I-75000
sg11
S'bob.butts@enron.com'
p212
sg13
I175000
sg14
g6
sg15
g6
sg16
g6
sg17
g6
sg18
I150656
sg19
g6
sg20
I750000
sg21
I417619
sg22
g31
sg23
g6
sg24
g6
sg25
I417619
sg26
I261516
sg27
I1271582
sg28
g6
ssS'OLSON CINDY K'
p213
(dp214
g3
F0.3053534303534303
sg4
I1184
sg5
I77716
sg7
I63791
sg8
F0.016891891891891893
sg9
I00
sg10
g6
sg11
S'cindy.olson@enron.com'
p215
sg13
I100000
sg14
g6
sg15
I856
sg16
g6
sg17
I52
sg18
I972
sg19
g6
sg20
I750000
sg21
I2606763
sg22
F0.28846153846153844
sg23
I20
sg24
I15
sg25
I969729
sg26
I329078
sg27
I1321557
sg28
I1637034
ssS'MCDONALD REBECCA'
p216
(dp217
g3
F0.1373257614868353
sg4
I894
sg5
g6
sg7
g6
sg8
F0.06040268456375839
sg9
I00
sg10
g6
sg11
S'rebecca.mcdonald@enron.com'
p218
sg13
g6
sg14
g6
sg15
I720
sg16
g6
sg17
I13
sg18
g6
sg19
g6
sg20
g6
sg21
I1691366
sg22
F0.07692307692307693
sg23
I54
sg24
I1
sg25
I934065
sg26
g6
sg27
g6
sg28
I757301
ssS'CUMBERLAND MICHAEL S'
p219
(dp220
g3
g31
sg4
g6
sg5
g6
sg7
I22344
sg8
g31
sg9
I00
sg10
g6
sg11
g6
sg13
I275000
sg14
g6
sg15
g6
sg16
g6
sg17
g6
sg18
I713
sg19
g6
sg20
I325000
sg21
I207940
sg22
g31
sg23
g6
sg24
g6
sg25
I207940
sg26
I184899
sg27
I807956
sg28
g6
ssS'GAHN ROBERT S'
p221
(dp222
g3
g31
sg4
g6
sg5
I73122
sg7
I50080
sg8
g31
sg9
I00
sg10
I-1042
sg11
g6
sg13
g6
sg14
g6
sg15
g6
sg16
g6
sg17
g6
sg18
I76547
sg19
g6
sg20
I509870
sg21
I318607
sg22
g31
sg23
g6
sg24
g6
sg25
I235370
sg26
I192008
sg27
I900585
sg28
I83237
ssS'MCCLELLAN GEORGE'
p223
(dp224
g3
F0.02981651376146789
sg4
I1744
sg5
g6
sg7
I228763
sg8
F0.02981651376146789
sg9
I00
sg10
I-125000
sg11
S'george.mcclellan@enron.com'
p225
sg13
g6
sg14
g6
sg15
I1469
sg16
g6
sg17
I49
sg18
I51587
sg19
g6
sg20
I900000
sg21
I947861
sg22
F0.0
sg23
I52
sg24
I0
sg25
I441096
sg26
I263413
sg27
I1318763
sg28
I506765
ssS'HERMANN ROBERT J'
p226
(dp227
g3
g31
sg4
g6
sg5
g6
sg7
I48357
sg8
g31
sg9
I00
sg10
I-280000
sg11
S'robert.hermann@enron.com'
p228
sg13
I150000
sg14
g6
sg15
g6
sg16
g6
sg17
g6
sg18
I416441
sg19
g6
sg20
I700000
sg21
I668132
sg22
g31
sg23
g6
sg24
g6
sg25
I480632
sg26
I262663
sg27
I1297461
sg28
I187500
ssS'SCRIMSHAW MATTHEW'
p229
(dp230
g3
g31
sg4
g6
sg5
g6
sg7
g6
sg8
g31
sg9
I00
sg10
g6
sg11
S'matthew.scrimshaw@enron.com'
p231
sg13
g6
sg14
g6
sg15
g6
sg16
g6
sg17
g6
sg18
g6
sg19
g6
sg20
g6
sg21
I759557
sg22
g31
sg23
g6
sg24
g6
sg25
g6
sg26
g6
sg27
g6
sg28
I759557
ssS'GATHMANN WILLIAM D'
p232
(dp233
g3
g31
sg4
g6
sg5
g6
sg7
g6
sg8
g31
sg9
I00
sg10
g6
sg11
g6
sg13
g6
sg14
I-72419
sg15
g6
sg16
g6
sg17
g6
sg18
g6
sg19
g6
sg20
g6
sg21
I1945360
sg22
g31
sg23
g6
sg24
g6
sg25
I264013
sg26
g6
sg27
g6
sg28
I1753766
ssS'HAEDICKE MARK E'
p234
(dp235
g3
F0.0763260767343544
sg4
I4009
sg5
I2157527
sg7
I76169
sg8
F0.04489897730107259
sg9
I00
sg10
I-934484
sg11
S'mark.haedicke@enron.com'
p236
sg13
I983346
sg14
I-329825
sg15
I1847
sg16
g6
sg17
I1941
sg18
I52382
sg19
g6
sg20
I1150000
sg21
I803094
sg22
F0.03142709943328181
sg23
I180
sg24
I61
sg25
I524169
sg26
I374125
sg27
I3859065
sg28
I608750
ssS'BOWEN JR RAYMOND M'
p237
(dp238
g3
F0.6309053940916158
sg4
I1858
sg5
g6
sg7
I65907
sg8
F0.07534983853606028
sg9
I01
sg10
I-833
sg11
S'raymond.bowen@enron.com'
p239
sg13
I974293
sg14
g6
sg15
I1593
sg16
g6
sg17
I27
sg18
I1621
sg19
g6
sg20
I1350000
sg21
I252055
sg22
F0.5555555555555556
sg23
I140
sg24
I15
sg25
I252055
sg26
I278601
sg27
I2669589
sg28
g6
ssS'GILLIS JOHN'
p240
(dp241
g3
g31
sg4
g6
sg5
g6
sg7
g6
sg8
g31
sg9
I00
sg10
g6
sg11
g6
sg13
g6
sg14
g6
sg15
g6
sg16
g6
sg17
g6
sg18
g6
sg19
g6
sg20
g6
sg21
I85641
sg22
g31
sg23
g6
sg24
g6
sg25
I75838
sg26
g6
sg27
g6
sg28
I9803
ssS'FITZGERALD JAY L'
p242
(dp243
g3
F0.5010683760683761
sg4
I936
sg5
g6
sg7
I23870
sg8
F0.0010683760683760685
sg9
I00
sg10
g6
sg11
S'jay.fitzgerald@enron.com'
p244
sg13
I556416
sg14
g6
sg15
I723
sg16
g6
sg17
I16
sg18
I285414
sg19
g6
sg20
I350000
sg21
I1621236
sg22
F0.5
sg23
I1
sg24
I8
sg25
I956775
sg26
I199157
sg27
I1414857
sg28
I664461
ssS'MORAN MICHAEL P'
p245
(dp246
g3
F0.0
sg4
I672
sg5
g6
sg7
g6
sg8
F0.0
sg9
I00
sg10
g6
sg11
S'michael.moran@enron.com'
p247
sg13
g6
sg14
g6
sg15
I127
sg16
g6
sg17
I19
sg18
g6
sg19
g6
sg20
g6
sg21
I221141
sg22
F0.0
sg23
I0
sg24
I0
sg25
I161602
sg26
g6
sg27
g6
sg28
I59539
ssS'REDMOND BRIAN L'
p248
(dp249
g3
F0.34380204229185113
sg4
I1671
sg5
g6
sg7
I14689
sg8
F0.12208258527827648
sg9
I00
sg10
g6
sg11
S'brian.redmond@enron.com'
p250
sg13
g6
sg14
g6
sg15
I1063
sg16
g6
sg17
I221
sg18
g6
sg19
g6
sg20
g6
sg21
I7890324
sg22
F0.22171945701357465
sg23
I204
sg24
I49
sg25
I381285
sg26
I96840
sg27
I111529
sg28
I7509039
ssS'BAZELIDES PHILIP J'
p251
(dp252
g3
g31
sg4
g6
sg5
I684694
sg7
g6
sg8
g31
sg9
I00
sg10
g6
sg11
g6
sg13
I93750
sg14
g6
sg15
g6
sg16
g6
sg17
g6
sg18
I874
sg19
g6
sg20
g6
sg21
I1599641
sg22
g31
sg23
g6
sg24
g6
sg25
g6
sg26
I80818
sg27
I860136
sg28
I1599641
ssS'BELDEN TIMOTHY N'
p253
(dp254
g3
F0.2516725944787059
sg4
I7991
sg5
I2144013
sg7
I17355
sg8
F0.028532098610937303
sg9
I01
sg10
I-2334434
sg11
S'tim.belden@enron.com'
p255
sg13
g6
sg14
g6
sg15
I5521
sg16
g6
sg17
I484
sg18
I210698
sg19
g6
sg20
I5249999
sg21
I1110705
sg22
F0.2231404958677686
sg23
I228
sg24
I108
sg25
I157569
sg26
I213999
sg27
I5501630
sg28
I953136
ssS'DURAN WILLIAM D'
p256
(dp257
g3
F0.3672566371681416
sg4
I904
sg5
g6
sg7
I25785
sg8
F0.1172566371681416
sg9
I00
sg10
g6
sg11
S'w.duran@enron.com'
p258
sg13
I1105218
sg14
g6
sg15
I599
sg16
g6
sg17
I12
sg18
I1568
sg19
g6
sg20
I750000
sg21
I1640910
sg22
F0.25
sg23
I106
sg24
I3
sg25
I189041
sg26
I210692
sg27
I2093263
sg28
I1451869
ssS'THORN TERENCE H'
p259
(dp260
g3
F0.0
sg4
I266
sg5
I16586
sg7
I46145
sg8
F0.0
sg9
I00
sg10
g6
sg11
S'terence.thorn@enron.com'
p261
sg13
I200000
sg14
g6
sg15
I73
sg16
g6
sg17
I41
sg18
I426629
sg19
g6
sg20
g6
sg21
I4817796
sg22
F0.0
sg23
I0
sg24
I0
sg25
I365320
sg26
I222093
sg27
I911453
sg28
I4452476
ssS'FASTOW ANDREW S'
p262
(dp263
g3
g31
sg4
g6
sg5
g6
sg7
I55921
sg8
g31
sg9
I01
sg10
I-1386055
sg11
S'andrew.fastow@enron.com'
p264
sg13
I1736055
sg14
g6
sg15
g6
sg16
g6
sg17
g6
sg18
I277464
sg19
g6
sg20
I1300000
sg21
I1794412
sg22
g31
sg23
g6
sg24
g6
sg25
I1794412
sg26
I440698
sg27
I2424083
sg28
g6
ssS'FOY JOE'
p265
(dp266
g3
F0.0
sg4
I57
sg5
I181755
sg7
g6
sg8
F0.0
sg9
I00
sg10
g6
sg11
S'tracy.foy@enron.com'
p267
sg13
g6
sg14
g6
sg15
I2
sg16
g6
sg17
I13
sg18
g6
sg19
g6
sg20
g6
sg21
I343434
sg22
F0.0
sg23
I0
sg24
I0
sg25
g6
sg26
g6
sg27
I181755
sg28
I343434
ssS'CALGER CHRISTOPHER F'
p268
(dp269
g3
F0.25020849371311266
sg4
I2598
sg5
g6
sg7
I35818
sg8
F0.07659738260200154
sg9
I01
sg10
I-262500
sg11
S'christopher.calger@enron.com'
p270
sg13
I375304
sg14
g6
sg15
I2188
sg16
g6
sg17
I144
sg18
I486
sg19
g6
sg20
I1250000
sg21
I126027
sg22
F0.1736111111111111
sg23
I199
sg24
I25
sg25
I126027
sg26
I240189
sg27
I1639297
sg28
g6
ssS'RICE KENNETH D'
p271
(dp272
g3
F0.2686310620012277
sg4
I905
sg5
g6
sg7
I46950
sg8
F0.04640883977900553
sg9
I01
sg10
I-3504386
sg11
S'ken.rice@enron.com'
p273
sg13
I1617011
sg14
g6
sg15
I864
sg16
g6
sg17
I18
sg18
I174839
sg19
g6
sg20
I1750000
sg21
I22542539
sg22
F0.2222222222222222
sg23
I42
sg24
I4
sg25
I2748364
sg26
I420636
sg27
I505050
sg28
I19794175
ssS'KAMINSKI WINCENTY J'
p274
(dp275
g3
F0.020800948421183414
sg4
I4607
sg5
g6
sg7
I83585
sg8
F0.008899500759713479
sg9
I00
sg10
g6
sg11
S'vince.kaminski@enron.com'
p276
sg13
I323466
sg14
g6
sg15
I583
sg16
g6
sg17
I14368
sg18
I4669
sg19
g6
sg20
I400000
sg21
I976037
sg22
F0.011901447661469933
sg23
I41
sg24
I171
sg25
I126027
sg26
I275101
sg27
I1086821
sg28
I850010
ssS'LOCKHART EUGENE E'
p277
(dp278
g3
g31
sg4
g6
sg5
g6
sg7
g6
sg8
g31
sg9
I00
sg10
g6
sg11
g6
sg13
g6
sg14
g6
sg15
g6
sg16
g6
sg17
g6
sg18
g6
sg19
g6
sg20
g6
sg21
g6
sg22
g31
sg23
g6
sg24
g6
sg25
g6
sg26
g6
sg27
g6
sg28
g6
ssS'COX DAVID'
p279
(dp280
g3
F0.12121212121212122
sg4
I102
sg5
g6
sg7
I27861
sg8
F0.0
sg9
I00
sg10
I-41250
sg11
S'chip.cox@enron.com'
p281
sg13
g6
sg14
g6
sg15
I71
sg16
g6
sg17
I33
sg18
I494
sg19
g6
sg20
I800000
sg21
I495633
sg22
F0.12121212121212122
sg23
I0
sg24
I4
sg25
I378082
sg26
I314288
sg27
I1101393
sg28
I117551
ssS'OVERDYKE JR JERE C'
p282
(dp283
g3
g31
sg4
g6
sg5
g6
sg7
I18834
sg8
g31
sg9
I00
sg10
g6
sg11
S'jere.overdyke@enron.com'
p284
sg13
I135836
sg14
g6
sg15
g6
sg16
g6
sg17
g6
sg18
I176
sg19
g6
sg20
g6
sg21
I7307594
sg22
g31
sg23
g6
sg24
g6
sg25
I2041016
sg26
I94941
sg27
I249787
sg28
I5266578
ssS'PEREIRA PAULO V. FERRAZ'
p285
(dp286
g3
g31
sg4
g6
sg5
g6
sg7
I27942
sg8
g31
sg9
I00
sg10
I-101250
sg11
g6
sg13
g6
sg14
g6
sg15
g6
sg16
g6
sg17
g6
sg18
g6
sg19
I101250
sg20
g6
sg21
g6
sg22
g31
sg23
g6
sg24
g6
sg25
g6
sg26
g6
sg27
I27942
sg28
g6
ssS'STABLER FRANK'
p287
(dp288
g3
g31
sg4
g6
sg5
g6
sg7
I16514
sg8
g31
sg9
I00
sg10
g6
sg11
S'frank.stabler@enron.com'
p289
sg13
g6
sg14
g6
sg15
g6
sg16
g6
sg17
g6
sg18
I356071
sg19
g6
sg20
I500000
sg21
I511734
sg22
g31
sg23
g6
sg24
g6
sg25
I511734
sg26
I239502
sg27
I1112087
sg28
g6
ssS'SKILLING JEFFREY K'
p290
(dp291
g3
F0.3020402536531569
sg4
I3627
sg5
g6
sg7
I29336
sg8
F0.0242624758753791
sg9
I01
sg10
g6
sg11
S'jeff.skilling@enron.com'
p292
sg13
I1920000
sg14
g6
sg15
I2042
sg16
g6
sg17
I108
sg18
I22122
sg19
g6
sg20
I5600000
sg21
I26093672
sg22
F0.2777777777777778
sg23
I88
sg24
I30
sg25
I6843672
sg26
I1111258
sg27
I8682716
sg28
I19250000
ssS'BLAKE JR. NORMAN P'
p293
(dp294
g3
g31
sg4
g6
sg5
g6
sg7
I1279
sg8
g31
sg9
I00
sg10
I-113784
sg11
g6
sg13
g6
sg14
g6
sg15
g6
sg16
g6
sg17
g6
sg18
g6
sg19
I113784
sg20
g6
sg21
g6
sg22
g31
sg23
g6
sg24
g6
sg25
g6
sg26
g6
sg27
I1279
sg28
g6
ssS'SHERRICK JEFFREY B'
p295
(dp296
g3
F0.7836215334420881
sg4
I613
sg5
g6
sg7
g6
sg8
F0.0636215334420881
sg9
I00
sg10
g6
sg11
S'jeffrey.sherrick@enron.com'
p297
sg13
g6
sg14
g6
sg15
I583
sg16
g6
sg17
I25
sg18
g6
sg19
g6
sg20
g6
sg21
I1832468
sg22
F0.72
sg23
I39
sg24
I18
sg25
I405999
sg26
g6
sg27
g6
sg28
I1426469
ssS'PRENTICE JAMES'
p298
(dp299
g3
g31
sg4
g6
sg5
I564348
sg7
g6
sg8
g31
sg9
I00
sg10
g6
sg11
S'james.prentice@enron.com'
p300
sg13
g6
sg14
g6
sg15
g6
sg16
g6
sg17
g6
sg18
g6
sg19
g6
sg20
g6
sg21
I1095040
sg22
g31
sg23
g6
sg24
g6
sg25
I208809
sg26
g6
sg27
I564348
sg28
I886231
ssS'GRAY RODNEY'
p301
(dp302
g3
g31
sg4
g6
sg5
I93585
sg7
g6
sg8
g31
sg9
I00
sg10
g6
sg11
g6
sg13
I365625
sg14
g6
sg15
g6
sg16
g6
sg17
g6
sg18
I680833
sg19
g6
sg20
g6
sg21
g6
sg22
g31
sg23
g6
sg24
g6
sg25
g6
sg26
I6615
sg27
I1146658
sg28
g6
ssS'PICKERING MARK R'
p303
(dp304
g3
F0.0077951002227171495
sg4
I898
sg5
g6
sg7
I31653
sg8
F0.0077951002227171495
sg9
I00
sg10
g6
sg11
S'mark.pickering@enron.com'
p305
sg13
g6
sg14
g6
sg15
I728
sg16
I400000
sg17
I67
sg18
g6
sg19
g6
sg20
I300000
sg21
I28798
sg22
F0.0
sg23
I7
sg24
I0
sg25
g6
sg26
I655037
sg27
I1386690
sg28
I28798
ssS'NOLES JAMES L'
p306
(dp307
g3
g31
sg4
g6
sg5
I774401
sg7
g6
sg8
g31
sg9
I00
sg10
g6
sg11
g6
sg13
g6
sg14
I-94556
sg15
g6
sg16
g6
sg17
g6
sg18
g6
sg19
g6
sg20
g6
sg21
I368705
sg22
g31
sg23
g6
sg24
g6
sg25
I463261
sg26
g6
sg27
I774401
sg28
g6
ssS'KEAN STEVEN J'
p308
(dp309
g3
F0.06823393908743702
sg4
I12754
sg5
g6
sg7
I41953
sg8
F0.010976948408342482
sg9
I00
sg10
g6
sg11
S'steven.kean@enron.com'
p310
sg13
I300000
sg14
g6
sg15
I3639
sg16
g6
sg17
I6759
sg18
I1231
sg19
g6
sg20
I1000000
sg21
I6153642
sg22
F0.05725699067909454
sg23
I140
sg24
I387
sg25
I4131594
sg26
I404338
sg27
I1747522
sg28
I2022048
ssS'FOWLER PEGGY'
p311
(dp312
g3
F0.0
sg4
I517
sg5
g6
sg7
g6
sg8
F0.0
sg9
I00
sg10
g6
sg11
S'kulvinder.fowler@enron.com'
p313
sg13
g6
sg14
g6
sg15
I10
sg16
g6
sg17
I36
sg18
g6
sg19
g6
sg20
g6
sg21
I1884748
sg22
F0.0
sg23
I0
sg24
I0
sg25
I560170
sg26
g6
sg27
g6
sg28
I1324578
ssS'WASAFF GEORGE'
p314
(dp315
g3
F0.28833333333333333
sg4
I400
sg5
I831299
sg7
g6
sg8
F0.055
sg9
I00
sg10
I-583325
sg11
S'george.wasaff@enron.com'
p316
sg13
I200000
sg14
g6
sg15
I337
sg16
g6
sg17
I30
sg18
I1425
sg19
g6
sg20
I325000
sg21
I2056427
sg22
F0.23333333333333334
sg23
I22
sg24
I7
sg25
I388167
sg26
I259996
sg27
I1034395
sg28
I1668260
ssS'WHITE JR THOMAS E'
p317
(dp318
g3
g31
sg4
g6
sg5
g6
sg7
I81353
sg8
g31
sg9
I00
sg10
g6
sg11
S'thomas.white@enron.com'
p319
sg13
g6
sg14
g6
sg15
g6
sg16
g6
sg17
g6
sg18
I1085463
sg19
g6
sg20
I450000
sg21
I15144123
sg22
g31
sg23
g6
sg24
g6
sg25
I13847074
sg26
I317543
sg27
I1934359
sg28
I1297049
ssS'CHRISTODOULOU DIOMEDES'
p320
(dp321
g3
g31
sg4
g6
sg5
g6
sg7
g6
sg8
g31
sg9
I00
sg10
g6
sg11
S'diomedes.christodoulou@enron.com'
p322
sg13
g6
sg14
g6
sg15
g6
sg16
g6
sg17
g6
sg18
g6
sg19
g6
sg20
g6
sg21
I6077885
sg22
g31
sg23
g6
sg24
g6
sg25
I950730
sg26
g6
sg27
g6
sg28
I5127155
ssS'ALLEN PHILLIP K'
p323
(dp324
g3
F0.04580848334900603
sg4
I2902
sg5
I2869717
sg7
I13868
sg8
F0.016195727084769126
sg9
I00
sg10
I-3081055
sg11
S'phillip.allen@enron.com'
p325
sg13
I304805
sg14
I-126027
sg15
I1407
sg16
g6
sg17
I2195
sg18
I152
sg19
g6
sg20
I4175000
sg21
I1729541
sg22
F0.029612756264236904
sg23
I47
sg24
I65
sg25
I126027
sg26
I201955
sg27
I4484442
sg28
I1729541
ssS'SHARP VICTORIA T'
p326
(dp327
g3
F0.05177070828331333
sg4
I3136
sg5
I187469
sg7
I116337
sg8
F0.007653061224489796
sg9
I00
sg10
g6
sg11
S'vicki.sharp@enron.com'
p328
sg13
I422158
sg14
g6
sg15
I2477
sg16
g6
sg17
I136
sg18
I2401
sg19
g6
sg20
I600000
sg21
I494136
sg22
F0.04411764705882353
sg23
I24
sg24
I6
sg25
I213063
sg26
I248146
sg27
I1576511
sg28
I281073
ssS'JAEDICKE ROBERT'
p329
(dp330
g3
g31
sg4
g6
sg5
g6
sg7
g6
sg8
g31
sg9
I00
sg10
I-25000
sg11
g6
sg13
g6
sg14
I-44093
sg15
g6
sg16
g6
sg17
g6
sg18
g6
sg19
I108750
sg20
g6
sg21
I431750
sg22
g31
sg23
g6
sg24
g6
sg25
I44093
sg26
g6
sg27
I83750
sg28
I431750
ssS'WINOKUR JR. HERBERT S'
p331
(dp332
g3
g31
sg4
g6
sg5
g6
sg7
I1413
sg8
g31
sg9
I00
sg10
I-25000
sg11
g6
sg13
g6
sg14
g6
sg15
g6
sg16
g6
sg17
g6
sg18
g6
sg19
I108579
sg20
g6
sg21
g6
sg22
g31
sg23
g6
sg24
g6
sg25
g6
sg26
g6
sg27
I84992
sg28
g6
ssS'BROWN MICHAEL'
p333
(dp334
g3
F0.03313856153366379
sg4
I1486
sg5
g6
sg7
I49288
sg8
F0.008748317631224764
sg9
I00
sg10
g6
sg11
S'michael.brown@enron.com'
p335
sg13
g6
sg14
g6
sg15
I761
sg16
g6
sg17
I41
sg18
g6
sg19
g6
sg20
g6
sg21
g6
sg22
F0.024390243902439025
sg23
I13
sg24
I1
sg25
g6
sg26
g6
sg27
I49288
sg28
g6
ssS'BADUM JAMES P'
p336
(dp337
g3
g31
sg4
g6
sg5
I178980
sg7
I3486
sg8
g31
sg9
I00
sg10
g6
sg11
g6
sg13
g6
sg14
g6
sg15
g6
sg16
g6
sg17
g6
sg18
g6
sg19
g6
sg20
g6
sg21
I257817
sg22
g31
sg23
g6
sg24
g6
sg25
g6
sg26
g6
sg27
I182466
sg28
I257817
ssS'HUGHES JAMES A'
p338
(dp339
g3
F0.19573754397447435
sg4
I719
sg5
g6
sg7
g6
sg8
F0.048678720445062586
sg9
I00
sg10
g6
sg11
S'james.hughes@enron.com'
p340
sg13
g6
sg14
g6
sg15
I589
sg16
g6
sg17
I34
sg18
g6
sg19
g6
sg20
g6
sg21
I1118394
sg22
F0.14705882352941177
sg23
I35
sg24
I5
sg25
I363428
sg26
g6
sg27
g6
sg28
I754966
ssS'REYNOLDS LAWRENCE'
p341
(dp342
g3
g31
sg4
g6
sg5
I51365
sg7
I8409
sg8
g31
sg9
I00
sg10
I-200000
sg11
g6
sg13
I156250
sg14
I-140264
sg15
g6
sg16
g6
sg17
g6
sg18
I202052
sg19
g6
sg20
I100000
sg21
I4221891
sg22
g31
sg23
g6
sg24
g6
sg25
I201483
sg26
I76399
sg27
I394475
sg28
I4160672
ssS'DIMICHELE RICHARD G'
p343
(dp344
g3
g31
sg4
g6
sg5
g6
sg7
I35812
sg8
g31
sg9
I00
sg10
g6
sg11
S'richard.dimichele@enron.com'
p345
sg13
I694862
sg14
g6
sg15
g6
sg16
g6
sg17
g6
sg18
I374689
sg19
g6
sg20
I1000000
sg21
I8317782
sg22
g31
sg23
g6
sg24
g6
sg25
I126027
sg26
I262788
sg27
I2368151
sg28
I8191755
ssS'BHATNAGAR SANJAY'
p346
(dp347
g3
F0.034482758620689655
sg4
I523
sg5
g6
sg7
g6
sg8
F0.0
sg9
I00
sg10
g6
sg11
S'sanjay.bhatnagar@enron.com'
p348
sg13
g6
sg14
I15456290
sg15
I463
sg16
g6
sg17
I29
sg18
I137864
sg19
I137864
sg20
g6
sS'total_stock_value'
p349
S'NaN'
p350
sg22
F0.034482758620689655
sg23
I0
sg24
I1
sg25
I-2604490
sg26
g6
sg27
I15456290
sg28
I2604490
ssS'CARTER REBECCA C'
p351
(dp352
g3
F0.5596153846153846
sg4
I312
sg5
g6
sg7
g6
sg8
F0.09294871794871795
sg9
I00
sg10
I-159792
sg11
S'rebecca.carter@enron.com'
p353
sg13
I75000
sg14
I-307301
sg15
I196
sg16
g6
sg17
I15
sg18
I540
sg19
g6
sg20
I300000
sg21
g6
sg22
F0.4666666666666667
sg23
I29
sg24
I7
sg25
I307301
sg26
I261809
sg27
I477557
sg28
g6
ssS'BUCHANAN HAROLD G'
p354
(dp355
g3
F0.0
sg4
I1088
sg5
g6
sg7
I600
sg8
F0.0
sg9
I00
sg10
g6
sg11
S'john.buchanan@enron.com'
p356
sg13
I304805
sg14
g6
sg15
I23
sg16
g6
sg17
I125
sg18
I1215
sg19
g6
sg20
I500000
sg21
I1014505
sg22
F0.0
sg23
I0
sg24
I0
sg25
I189041
sg26
I248017
sg27
I1054637
sg28
I825464
ssS'YEAP SOON'
p357
(dp358
g3
g31
sg4
g6
sg5
g6
sg7
I55097
sg8
g31
sg9
I00
sg10
g6
sg11
g6
sg13
g6
sg14
g6
sg15
g6
sg16
g6
sg17
g6
sg18
g6
sg19
g6
sg20
g6
sg21
I192758
sg22
g31
sg23
g6
sg24
g6
sg25
g6
sg26
g6
sg27
I55097
sg28
I192758
ssS'MURRAY JULIA H'
p359
(dp360
g3
F0.04946269261962693
sg4
I2192
sg5
g6
sg7
I57580
sg8
F0.005018248175182482
sg9
I00
sg10
g6
sg11
S'julia.murray@enron.com'
p361
sg13
I125000
sg14
g6
sg15
I395
sg16
g6
sg17
I45
sg18
I330
sg19
g6
sg20
I400000
sg21
I597461
sg22
F0.044444444444444446
sg23
I11
sg24
I2
sg25
I196983
sg26
I229284
sg27
I812194
sg28
I400478
ssS'GARLAND C KEVIN'
p362
(dp363
g3
F0.6614832535885168
sg4
I209
sg5
g6
sg7
I48405
sg8
F0.04784688995215311
sg9
I00
sg10
g6
sg11
S'kevin.garland@enron.com'
p364
sg13
I375304
sg14
g6
sg15
I178
sg16
g6
sg17
I44
sg18
I60814
sg19
g6
sg20
I850000
sg21
I896153
sg22
F0.6136363636363636
sg23
I10
sg24
I27
sg25
I259907
sg26
I231946
sg27
I1566469
sg28
I636246
ssS'DODSON KEITH'
p365
(dp366
g3
F0.27110389610389607
sg4
I176
sg5
g6
sg7
I28164
sg8
F0.056818181818181816
sg9
I00
sg10
g6
sg11
S'keith.dodson@enron.com'
p367
sg13
g6
sg14
g6
sg15
I114
sg16
g6
sg17
I14
sg18
I774
sg19
g6
sg20
I70000
sg21
g6
sg22
F0.21428571428571427
sg23
I10
sg24
I3
sg25
g6
sg26
I221003
sg27
I319941
sg28
g6
ssS'YEAGER F SCOTT'
p368
(dp369
g3
g31
sg4
g6
sg5
g6
sg7
I53947
sg8
g31
sg9
I01
sg10
g6
sg11
S'scott.yeager@enron.com'
p370
sg13
g6
sg14
g6
sg15
g6
sg16
g6
sg17
g6
sg18
I147950
sg19
g6
sg20
g6
sg21
I11884758
sg22
g31
sg23
g6
sg24
g6
sg25
I3576206
sg26
I158403
sg27
I360300
sg28
I8308552
ssS'HIRKO JOSEPH'
p371
(dp372
g3
g31
sg4
g6
sg5
I10259
sg7
I77978
sg8
g31
sg9
I01
sg10
g6
sg11
S'joe.hirko@enron.com'
p373
sg13
g6
sg14
g6
sg15
g6
sg16
g6
sg17
g6
sg18
I2856
sg19
g6
sg20
g6
sg21
I30766064
sg22
g31
sg23
g6
sg24
g6
sg25
g6
sg26
g6
sg27
I91093
sg28
I30766064
ssS'DIETRICH JANET R'
p374
(dp375
g3
F0.34080698116467945
sg4
I2572
sg5
g6
sg7
I3475
sg8
F0.11858475894245724
sg9
I00
sg10
g6
sg11
S'janet.dietrich@enron.com'
p376
sg13
I556416
sg14
g6
sg15
I1902
sg16
g6
sg17
I63
sg18
I473
sg19
g6
sg20
I600000
sg21
I1865087
sg22
F0.2222222222222222
sg23
I305
sg24
I14
sg25
I315068
sg26
I250100
sg27
I1410464
sg28
I1550019
ssS'DERRICK JR. JAMES V'
p377
(dp378
g3
F0.05134653767990279
sg4
I2181
sg5
g6
sg7
I51124
sg8
F0.029344337459880788
sg9
I00
sg10
I-1284000
sg11
S'james.derrick@enron.com'
p379
sg13
I484000
sg14
I-1787380
sg15
I1401
sg16
g6
sg17
I909
sg18
I7482
sg19
g6
sg20
I800000
sg21
I8831913
sg22
F0.022002200220022004
sg23
I64
sg24
I20
sg25
I1787380
sg26
I492375
sg27
I550981
sg28
I8831913
ssS'FREVERT MARK A'
p380
(dp381
g3
F0.3596074154852781
sg4
I3275
sg5
I6426990
sg7
I86987
sg8
F0.07389312977099237
sg9
I00
sg10
I-3367011
sg11
S'mark.frevert@enron.com'
p382
sg13
I1617011
sg14
g6
sg15
I2979
sg16
I2000000
sg17
I21
sg18
I7427621
sg19
g6
sg20
I2000000
sg21
I14622185
sg22
F0.2857142857142857
sg23
I242
sg24
I6
sg25
I4188667
sg26
I1060932
sg27
I17252530
sg28
I10433518
ssS'PAI LOU L'
p383
(dp384
g3
g31
sg4
g6
sg5
g6
sg7
I32047
sg8
g31
sg9
I00
sg10
g6
sg11
S'lou.pai@enron.com'
p385
sg13
g6
sg14
g6
sg15
g6
sg16
g6
sg17
g6
sg18
I1829457
sg19
g6
sg20
I1000000
sg21
I23817930
sg22
g31
sg23
g6
sg24
g6
sg25
I8453763
sg26
I261879
sg27
I3123383
sg28
I15364167
ssS'BAY FRANKLIN R'
p386
(dp387
g3
g31
sg4
g6
sg5
I260455
sg7
I129142
sg8
g31
sg9
I00
sg10
I-201641
sg11
S'frank.bay@enron.com'
p388
sg13
g6
sg14
I-82782
sg15
g6
sg16
g6
sg17
g6
sg18
I69
sg19
g6
sg20
I400000
sg21
I63014
sg22
g31
sg23
g6
sg24
g6
sg25
I145796
sg26
I239671
sg27
I827696
sg28
g6
ssS'HAYSLETT RODERICK J'
p389
(dp390
g3
F0.04902780164584719
sg4
I2649
sg5
g6
sg7
g6
sg8
F0.01321253303133258
sg9
I00
sg10
g6
sg11
S'rod.hayslett@enron.com'
p391
sg13
g6
sg14
g6
sg15
I571
sg16
g6
sg17
I1061
sg18
g6
sg19
g6
sg20
g6
sg21
I346663
sg22
F0.03581526861451461
sg23
I35
sg24
I38
sg25
I346663
sg26
g6
sg27
g6
sg28
g6
ssS'FUGH JOHN L'
p392
(dp393
g3
g31
sg4
g6
sg5
I50591
sg7
g6
sg8
g31
sg9
I00
sg10
g6
sg11
g6
sg13
g6
sg14
g6
sg15
g6
sg16
g6
sg17
g6
sg18
g6
sg19
g6
sg20
g6
sg21
I176378
sg22
g31
sg23
g6
sg24
g6
sg25
g6
sg26
g6
sg27
I50591
sg28
I176378
ssS'FALLON JAMES B'
p394
(dp395
g3
F0.5172649572649572
sg4
I1755
sg5
g6
sg7
I95924
sg8
F0.023931623931623933
sg9
I00
sg10
g6
sg11
S'jim.fallon@enron.com'
p396
sg13
I374347
sg14
g6
sg15
I1604
sg16
g6
sg17
I75
sg18
I401481
sg19
g6
sg20
I2500000
sg21
I2332399
sg22
F0.49333333333333335
sg23
I42
sg24
I37
sg25
I1392142
sg26
I304588
sg27
I3676340
sg28
I940257
ssS'KOENIG MARK E'
p397
(dp398
g3
F0.2682268288977585
sg4
I2374
sg5
g6
sg7
I127017
sg8
F0.02232518955349621
sg9
I01
sg10
g6
sg11
S'mark.koenig@enron.com'
p399
sg13
I300000
sg14
g6
sg15
I2271
sg16
g6
sg17
I61
sg18
I150458
sg19
g6
sg20
I700000
sg21
I1920055
sg22
F0.2459016393442623
sg23
I53
sg24
I15
sg25
I1248318
sg26
I309946
sg27
I1587421
sg28
I671737
ssS'SAVAGE FRANK'
p400
(dp401
g3
g31
sg4
g6
sg5
g6
sg7
g6
sg8
g31
sg9
I00
sg10
I-121284
sg11
g6
sg13
g6
sg14
g6
sg15
g6
sg16
g6
sg17
g6
sg18
g6
sg19
I125034
sg20
g6
sg21
g6
sg22
g31
sg23
g6
sg24
g6
sg25
g6
sg26
g6
sg27
I3750
sg28
g6
ssS'IZZO LAWRENCE L'
p402
(dp403
g3
F0.3196095076400679
sg4
I496
sg5
g6
sg7
I28093
sg8
F0.056451612903225805
sg9
I00
sg10
g6
sg11
S'larry.izzo@enron.com'
p404
sg13
I312500
sg14
g6
sg15
I437
sg16
g6
sg17
I19
sg18
I1553729
sg19
g6
sg20
g6
sg21
I5819980
sg22
F0.2631578947368421
sg23
I28
sg24
I5
sg25
I3654808
sg26
I85274
sg27
I1979596
sg28
I2165172
ssS'TILNEY ELIZABETH A'
p405
(dp406
g3
F0.6006864988558352
sg4
I460
sg5
g6
sg7
g6
sg8
F0.021739130434782608
sg9
I00
sg10
I-575000
sg11
S'elizabeth.tilney@enron.com'
p407
sg13
I275000
sg14
g6
sg15
I379
sg16
g6
sg17
I19
sg18
I152055
sg19
g6
sg20
I300000
sg21
I1168042
sg22
F0.5789473684210527
sg23
I10
sg24
I11
sg25
I576792
sg26
I247338
sg27
I399393
sg28
I591250
ssS'MARTIN AMANDA K'
p408
(dp409
g3
F0.005256241787122208
sg4
I1522
sg5
I85430
sg7
I8211
sg8
F0.005256241787122208
sg9
I00
sg10
g6
sg11
S'a..martin@enron.com'
p410
sg13
I5145434
sg14
g6
sg15
I477
sg16
g6
sg17
I230
sg18
I2818454
sg19
g6
sg20
g6
sg21
I2070306
sg22
F0.0
sg23
I8
sg24
I0
sg25
g6
sg26
I349487
sg27
I8407016
sg28
I2070306
ssS'BUY RICHARD B'
p411
(dp412
g3
F0.11170684356416213
sg4
I3523
sg5
I649584
sg7
g6
sg8
F0.04428044280442804
sg9
I00
sg10
I-694862
sg11
S'rick.buy@enron.com'
p413
sg13
I769862
sg14
g6
sg15
I2333
sg16
g6
sg17
I1053
sg18
I400572
sg19
g6
sg20
I900000
sg21
I3444470
sg22
F0.06742640075973409
sg23
I156
sg24
I71
sg25
I901657
sg26
I330546
sg27
I2355702
sg28
I2542813
ssS'GRAMM WENDY L'
p414
(dp415
g3
g31
sg4
g6
sg5
g6
sg7
g6
sg8
g31
sg9
I00
sg10
g6
sg11
g6
sg13
g6
sg14
g6
sg15
g6
sg16
g6
sg17
g6
sg18
g6
sg19
I119292
sg20
g6
sg21
g6
sg22
g31
sg23
g6
sg24
g6
sg25
g6
sg26
g6
sg27
I119292
sg28
g6
ssS'CAUSEY RICHARD A'
p416
(dp417
g3
F0.2755533503041809
sg4
I1892
sg5
g6
sg7
I30674
sg8
F0.0306553911205074
sg9
I01
sg10
I-235000
sg11
S'richard.causey@enron.com'
p418
sg13
I350000
sg14
g6
sg15
I1585
sg16
g6
sg17
I49
sg18
I307895
sg19
g6
sg20
I1000000
sg21
I2502063
sg22
F0.24489795918367346
sg23
I58
sg24
I12
sg25
I2502063
sg26
I415189
sg27
I1868758
sg28
g6
ssS'TAYLOR MITCHELL S'
p419
(dp420
g3
F0.0
sg4
I533
sg5
I227449
sg7
g6
sg8
F0.0
sg9
I00
sg10
g6
sg11
S'mitchell.taylor@enron.com'
p421
sg13
g6
sg14
g6
sg15
I300
sg16
g6
sg17
I29
sg18
g6
sg19
g6
sg20
I600000
sg21
I3745048
sg22
F0.0
sg23
I0
sg24
I0
sg25
I563798
sg26
I265214
sg27
I1092663
sg28
I3181250
ssS'DONAHUE JR JEFFREY M'
p422
(dp423
g3
F0.7173410404624277
sg4
I865
sg5
g6
sg7
I96268
sg8
F0.21734104046242775
sg9
I00
sg10
I-300000
sg11
S'jeff.donahue@enron.com'
p424
sg13
g6
sg14
g6
sg15
I772
sg16
g6
sg17
I22
sg18
I891
sg19
g6
sg20
I800000
sg21
I1080988
sg22
F0.5
sg23
I188
sg24
I11
sg25
I315068
sg26
I278601
sg27
I875760
sg28
I765920
ssS'GLISAN JR BEN F'
p425
(dp426
g3
F1.4345647193585338
sg4
I873
sg5
g6
sg7
I125978
sg8
F0.05956471935853379
sg9
I01
sg10
g6
sg11
S'ben.glisan@enron.com'
p427
sg13
I71023
sg14
g6
sg15
I874
sg16
g6
sg17
I16
sg18
I200308
sg19
g6
sg20
I600000
sg21
I778546
sg22
F0.375
sg23
I52
sg24
I6
sg25
I393818
sg26
I274975
sg27
I1272284
sg28
I384728
ss.